target datalayout = "e-m:e-p270:32:32-p271:32:32-p272:64:64-i64:64-i128:128-f80:128-n8:16:32:64-S128"
target triple = "x86_64-pc-linux-gnu"

@.str.3 = private unnamed_addr constant [6 x i8] c"UTF-8\00", align 1
@.str.4 = private unnamed_addr constant [7 x i8] c"LATIN1\00", align 1

; Function Attrs: nounwind uwtable
define ptr @dt_util_foo_to_utf8(ptr noundef %0) #0 {
  %2 = alloca ptr, align 8
  %3 = alloca ptr, align 8
  %4 = alloca ptr, align 8
  store ptr %0, ptr %2, align 8, !tbaa !6
  call void @llvm.lifetime.start.p0(i64 8, ptr %3) #18
  store ptr null, ptr %3, align 8, !tbaa !6
  %5 = load ptr, ptr %2, align 8, !tbaa !6
  %6 = call i32 @g_utf8_validate(ptr noundef %5, i64 noundef -1, ptr noundef null)
  %7 = icmp ne i32 %6, 0
  br i1 %7, label %8, label %11

8:                                                ; preds = %1
  %9 = load ptr, ptr %2, align 8, !tbaa !6
  %10 = call noalias ptr @g_strdup(ptr noundef %9)
  store ptr %10, ptr %3, align 8, !tbaa !6
  br label %14

11:                                               ; preds = %1
  %12 = load ptr, ptr %2, align 8, !tbaa !6
  %13 = call noalias ptr @g_convert(ptr noundef %12, i64 noundef -1, ptr noundef @.str.3, ptr noundef @.str.4, ptr noundef null, ptr noundef null, ptr noundef null)
  store ptr %13, ptr %3, align 8, !tbaa !6
  br label %14

14:                                               ; preds = %11, %8
  %15 = load ptr, ptr %3, align 8, !tbaa !6
  %16 = icmp ne ptr %15, null
  br i1 %16, label %41, label %17

17:                                               ; preds = %14
  %18 = load ptr, ptr %2, align 8, !tbaa !6
  %19 = call noalias ptr @g_strdup(ptr noundef %18)
  store ptr %19, ptr %3, align 8, !tbaa !6
  call void @llvm.lifetime.start.p0(i64 8, ptr %4) #18
  %20 = load ptr, ptr %3, align 8, !tbaa !6
  store ptr %20, ptr %4, align 8, !tbaa !6
  br label %21

21:                                               ; preds = %37, %17
  %22 = load ptr, ptr %4, align 8, !tbaa !6
  %23 = load i8, ptr %22, align 1, !tbaa !18
  %24 = icmp ne i8 %23, 0
  br i1 %24, label %25, label %40

25:                                               ; preds = %21
  %26 = load ptr, ptr %4, align 8, !tbaa !6
  %27 = load i8, ptr %26, align 1, !tbaa !18
  %28 = sext i8 %27 to i32
  %29 = icmp slt i32 %28, 32
  br i1 %29, label %35, label %30

30:                                               ; preds = %25
  %31 = load ptr, ptr %4, align 8, !tbaa !6
  %32 = load i8, ptr %31, align 1, !tbaa !18
  %33 = sext i8 %32 to i32
  %34 = icmp sge i32 %33, 127
  br i1 %34, label %35, label %37

35:                                               ; preds = %30, %25
  %36 = load ptr, ptr %4, align 8, !tbaa !6
  store i8 63, ptr %36, align 1, !tbaa !18
  br label %37

37:                                               ; preds = %35, %30
  %38 = load ptr, ptr %4, align 8, !tbaa !6
  %39 = getelementptr inbounds nuw i8, ptr %38, i32 1
  store ptr %39, ptr %4, align 8, !tbaa !6
  br label %21

40:                                               ; preds = %21
  call void @llvm.lifetime.end.p0(i64 8, ptr %4) #18
  br label %41

41:                                               ; preds = %40, %14
  %42 = load ptr, ptr %3, align 8, !tbaa !6
  call void @llvm.lifetime.end.p0(i64 8, ptr %3) #18
  ret ptr %42
}