; Function Attrs: nounwind uwtable
define ptr @dt_util_foo_to_utf8(ptr noundef %0) local_unnamed_addr #0 {
  %2 = tail call i32 @g_utf8_validate(ptr noundef %0, i64 noundef -1, ptr noundef null) #27
  %.not = icmp eq i32 %2, 0
  br i1 %.not, label %5, label %3

3:                                                ; preds = %1
  %4 = tail call noalias ptr @g_strdup(ptr noundef %0) #27
  br label %7

5:                                                ; preds = %1
  %6 = tail call noalias ptr @g_convert(ptr noundef %0, i64 noundef -1, ptr noundef nonnull @.str.3, ptr noundef nonnull @.str.4, ptr noundef null, ptr noundef null, ptr noundef null) #27
  br label %7

7:                                                ; preds = %5, %3
  %.012 = phi ptr [ %4, %3 ], [ %6, %5 ]
  %.not15 = icmp eq ptr %.012, null
  br i1 %.not15, label %8, label %.loopexit

8:                                                ; preds = %7
  %9 = tail call noalias ptr @g_strdup(ptr noundef %0) #27
  %10 = load i8, ptr %9, align 1, !tbaa !11
  %.not1617 = icmp eq i8 %10, 0
  br i1 %.not1617, label %.loopexit, label %.lr.ph

.lr.ph:                                           ; preds = %8, %14
  %11 = phi i8 [ %16, %14 ], [ %10, %8 ]
  %.018 = phi ptr [ %15, %14 ], [ %9, %8 ]
  %12 = add i8 %11, -127
  %or.cond = icmp ult i8 %12, -95
  br i1 %or.cond, label %13, label %14

13:                                               ; preds = %.lr.ph
  store i8 63, ptr %.018, align 1, !tbaa !11
  br label %14

14:                                               ; preds = %.lr.ph, %13
  %15 = getelementptr inbounds nuw i8, ptr %.018, i64 1
  %16 = load i8, ptr %15, align 1, !tbaa !11
  %.not16 = icmp eq i8 %16, 0
  br i1 %.not16, label %.loopexit, label %.lr.ph

.loopexit:                                        ; preds = %14, %8, %7
  %.1 = phi ptr [ %.012, %7 ], [ %9, %8 ], [ %9, %14 ]
  ret ptr %.1
}